; Function Attrs: mustprogress nounwind uwtable
define noundef nonnull align 8 dereferenceable(8) ptr @_ZN3gmx20LocalTopologyCheckeraSEOS0_(ptr noundef nonnull returned align 8 dereferenceable(8) %0, ptr noundef nonnull align 8 captures(none) dereferenceable(8) %1) local_unnamed_addr #6 align 2 personality ptr @__gxx_personality_v0 {
  %3 = load ptr, ptr %1, align 8, !tbaa !29
  store ptr null, ptr %1, align 8, !tbaa !29
  %4 = load ptr, ptr %0, align 8, !tbaa !29
  store ptr %3, ptr %0, align 8, !tbaa !29
  %.not.i.i.i.i = icmp eq ptr %4, null
  br i1 %.not.i.i.i.i, label %_ZNSt10unique_ptrIN3gmx20LocalTopologyChecker4ImplESt14default_deleteIS2_EEaSEOS5_.exit, label %5

5:                                                ; preds = %2
  %6 = getelementptr inbounds nuw i8, ptr %4, i64 72
  %7 = load ptr, ptr %6, align 8, !tbaa !25
  %.not.i.i.i.i.i.i.i = icmp eq ptr %7, null
  br i1 %.not.i.i.i.i.i.i.i, label %_ZNKSt14default_deleteIN3gmx20LocalTopologyChecker4ImplEEclEPS2_.exit.i.i.i.i, label %8

8:                                                ; preds = %5
  %9 = getelementptr inbounds nuw i8, ptr %4, i64 56
  %10 = invoke noundef zeroext i1 %7(ptr noundef nonnull align 8 dereferenceable(32) %9, ptr noundef nonnull align 8 dereferenceable(32) %9, i32 noundef 3)
          to label %_ZNKSt14default_deleteIN3gmx20LocalTopologyChecker4ImplEEclEPS2_.exit.i.i.i.i unwind label %11

11:                                               ; preds = %8
  %12 = landingpad { ptr, i32 }
          catch ptr null
  %13 = extractvalue { ptr, i32 } %12, 0
  tail call void @__clang_call_terminate(ptr %13) #17
  unreachable

_ZNKSt14default_deleteIN3gmx20LocalTopologyChecker4ImplEEclEPS2_.exit.i.i.i.i: ; preds = %8, %5
  tail call void @_ZdlPvm(ptr noundef nonnull %4, i64 noundef 96) #20
  br label %_ZNSt10unique_ptrIN3gmx20LocalTopologyChecker4ImplESt14default_deleteIS2_EEaSEOS5_.exit

_ZNSt10unique_ptrIN3gmx20LocalTopologyChecker4ImplESt14default_deleteIS2_EEaSEOS5_.exit: ; preds = %2, %_ZNKSt14default_deleteIN3gmx20LocalTopologyChecker4ImplEEclEPS2_.exit.i.i.i.i
  ret ptr %0
}